; Function Attrs: nounwind uwtable
define internal fastcc range(i32 2, 6) i32 @exec_command_elif(ptr noundef %0, ptr noundef %1, ptr noundef captures(address_is_null) %2) unnamed_addr #0 {
  %4 = tail call i32 @conditional_stack_peek(ptr noundef %1) #16
  switch i32 %4, label %34 [
    i32 1, label %5
    i32 2, label %12
    i32 3, label %24
    i32 4, label %32
    i32 5, label %32
    i32 0, label %33
  ]

5:                                                ; preds = %3
  %.not.i = icmp eq ptr %2, null
  br i1 %.not.i, label %save_query_text_state.exit, label %6

6:                                                ; preds = %5
  %7 = getelementptr inbounds nuw i8, ptr %2, i64 8
  %8 = load i64, ptr %7, align 8
  %9 = trunc i64 %8 to i32
  tail call void @conditional_stack_set_query_len(ptr noundef %1, i32 noundef %9) #16
  br label %save_query_text_state.exit

save_query_text_state.exit:                       ; preds = %5, %6
  %10 = tail call i32 @psql_scan_get_paren_depth(ptr noundef %0) #16
  tail call void @conditional_stack_set_paren_depth(ptr noundef %1, i32 noundef %10) #16
  %11 = tail call zeroext i1 @conditional_stack_poke(ptr noundef %1, i32 noundef 3) #16
  tail call fastcc void @ignore_boolean_expression(ptr noundef %0)
  br label %34

12:                                               ; preds = %3
  %.not.i16 = icmp eq ptr %2, null
  br i1 %.not.i16, label %discard_query_text.exit, label %13

13:                                               ; preds = %12
  %14 = tail call i32 @conditional_stack_get_query_len(ptr noundef %1) #16
  %15 = sext i32 %14 to i64
  %16 = getelementptr inbounds nuw i8, ptr %2, i64 8
  store i64 %15, ptr %16, align 8
  %17 = load ptr, ptr %2, align 8
  %18 = getelementptr inbounds i8, ptr %17, i64 %15
  store i8 0, ptr %18, align 1
  br label %discard_query_text.exit

discard_query_text.exit:                          ; preds = %12, %13
  %19 = tail call i32 @conditional_stack_get_paren_depth(ptr noundef %1) #16
  tail call void @psql_scan_set_paren_depth(ptr noundef %0, i32 noundef %19) #16
  %20 = tail call zeroext i1 @conditional_stack_poke(ptr noundef %1, i32 noundef 1) #16
  %21 = tail call fastcc zeroext i1 @is_true_boolean_expression(ptr noundef %0, ptr noundef nonnull @.str.239)
  br i1 %21, label %34, label %22

22:                                               ; preds = %discard_query_text.exit
  %23 = tail call zeroext i1 @conditional_stack_poke(ptr noundef %1, i32 noundef 2) #16
  br label %34

24:                                               ; preds = %3
  %.not.i17 = icmp eq ptr %2, null
  br i1 %.not.i17, label %discard_query_text.exit18, label %25

25:                                               ; preds = %24
  %26 = tail call i32 @conditional_stack_get_query_len(ptr noundef %1) #16
  %27 = sext i32 %26 to i64
  %28 = getelementptr inbounds nuw i8, ptr %2, i64 8
  store i64 %27, ptr %28, align 8
  %29 = load ptr, ptr %2, align 8
  %30 = getelementptr inbounds i8, ptr %29, i64 %27
  store i8 0, ptr %30, align 1
  br label %discard_query_text.exit18

discard_query_text.exit18:                        ; preds = %24, %25
  %31 = tail call i32 @conditional_stack_get_paren_depth(ptr noundef %1) #16
  tail call void @psql_scan_set_paren_depth(ptr noundef %0, i32 noundef %31) #16
  tail call fastcc void @ignore_boolean_expression(ptr noundef %0)
  br label %34

32:                                               ; preds = %3, %3
  tail call void (i32, i32, ptr, ...) @pg_log_generic(i32 noundef 4, i32 noundef 0, ptr noundef nonnull @.str.240) #16
  br label %34

33:                                               ; preds = %3
  tail call void (i32, i32, ptr, ...) @pg_log_generic(i32 noundef 4, i32 noundef 0, ptr noundef nonnull @.str.241) #16
  br label %34

34:                                               ; preds = %discard_query_text.exit, %22, %33, %32, %discard_query_text.exit18, %save_query_text_state.exit, %3
  %.0 = phi i32 [ 2, %3 ], [ 5, %33 ], [ 5, %32 ], [ 2, %discard_query_text.exit18 ], [ 2, %discard_query_text.exit ], [ 2, %22 ], [ 2, %save_query_text_state.exit ]
  ret i32 %.0
}